; Function Attrs: mustprogress nofree norecurse nosync nounwind willreturn memory(argmem: read) uwtable
define dso_local noundef zeroext i1 @_ZN5clang11DeclContext7classofEPKNS_4DeclE(ptr nocapture noundef readonly %0) local_unnamed_addr #2 align 2 {
  %2 = getelementptr inbounds nuw i8, ptr %0, i64 28
  %3 = load i32, ptr %2, align 4
  %4 = and i32 %3, 127
  %5 = icmp ult i32 %4, 60
  %switch.cast = zext nneg i32 %4 to i60
  %switch.downshift = lshr i60 -36028661693972225, %switch.cast
  %switch.masked = trunc i60 %switch.downshift to i1
  %.0 = select i1 %5, i1 %switch.masked, i1 false
  ret i1 %.0
}